target datalayout = "e-m:e-p270:32:32-p271:32:32-p272:64:64-i64:64-i128:128-f80:128-n8:16:32:64-S128"
target triple = "x86_64-pc-linux-gnu"

%struct.SDL_GPUDevice = type { ptr, ptr, ptr, ptr, ptr, ptr, ptr, ptr, ptr, ptr, ptr, ptr, ptr, ptr, ptr, ptr, ptr, ptr, ptr, ptr, ptr, ptr, ptr, ptr, ptr, ptr, ptr, ptr, ptr, ptr, ptr, ptr, ptr, ptr, ptr, ptr, ptr, ptr, ptr, ptr, ptr, ptr, ptr, ptr, ptr, ptr, ptr, ptr, ptr, ptr, ptr, ptr, ptr, ptr, ptr, ptr, ptr, ptr, ptr, ptr, ptr, ptr, ptr, ptr, ptr, ptr, ptr, ptr, ptr, ptr, ptr, ptr, ptr, ptr, ptr, ptr, ptr, ptr, ptr, ptr, ptr, ptr, ptr, ptr, ptr, i32, i8 }
%struct.SDL_GPUComputePipelineCreateInfo = type { i64, ptr, ptr, i32, i32, i32, i32, i32, i32, i32, i32, i32, i32, i32 }

@.str.3 = private unnamed_addr constant [19 x i8] c"Invalid GPU device\00", align 1
@.str.4 = private unnamed_addr constant [26 x i8] c"Parameter '%s' is invalid\00", align 1
@.str.8 = private unnamed_addr constant [103 x i8] c"generated/home/dtcxzyw/WorkSpace/Projects/compilers/llvm-opt-benchmark/bench/sdl/SDL/src/gpu/SDL_gpu.c\00", align 1
@.str.11 = private unnamed_addr constant [11 x i8] c"createinfo\00", align 1
@SDL_CreateGPUComputePipeline_REAL.sdl_assert_data = internal global { i8, [3 x i8], i32, ptr, ptr, i32, [4 x i8], ptr, ptr } { i8 0, [3 x i8] zeroinitializer, i32 0, ptr @.str.13, ptr null, i32 0, [4 x i8] zeroinitializer, ptr null, ptr null }, align 8
@__func__.SDL_CreateGPUComputePipeline_REAL = private unnamed_addr constant [34 x i8] c"SDL_CreateGPUComputePipeline_REAL\00", align 1
@SDL_CreateGPUComputePipeline_REAL.sdl_assert_data.15 = internal global { i8, [3 x i8], i32, ptr, ptr, i32, [4 x i8], ptr, ptr } { i8 0, [3 x i8] zeroinitializer, i32 0, ptr @.str.16, ptr null, i32 0, [4 x i8] zeroinitializer, ptr null, ptr null }, align 8
@SDL_CreateGPUComputePipeline_REAL.sdl_assert_data.18 = internal global { i8, [3 x i8], i32, ptr, ptr, i32, [4 x i8], ptr, ptr } { i8 0, [3 x i8] zeroinitializer, i32 0, ptr @.str.19, ptr null, i32 0, [4 x i8] zeroinitializer, ptr null, ptr null }, align 8
@SDL_CreateGPUComputePipeline_REAL.sdl_assert_data.21 = internal global { i8, [3 x i8], i32, ptr, ptr, i32, [4 x i8], ptr, ptr } { i8 0, [3 x i8] zeroinitializer, i32 0, ptr @.str.22, ptr null, i32 0, [4 x i8] zeroinitializer, ptr null, ptr null }, align 8
@SDL_CreateGPUComputePipeline_REAL.sdl_assert_data.24 = internal global { i8, [3 x i8], i32, ptr, ptr, i32, [4 x i8], ptr, ptr } { i8 0, [3 x i8] zeroinitializer, i32 0, ptr @.str.25, ptr null, i32 0, [4 x i8] zeroinitializer, ptr null, ptr null }, align 8

; Function Attrs: nounwind uwtable
define hidden ptr @SDL_CreateGPUComputePipeline_REAL(ptr noundef %0, ptr noundef %1) #0 {
  %3 = alloca ptr, align 8
  %4 = alloca ptr, align 8
  %5 = alloca ptr, align 8
  %6 = alloca i32, align 4
  %7 = alloca i32, align 4
  %8 = alloca i32, align 4
  %9 = alloca i32, align 4
  %10 = alloca i32, align 4
  %11 = alloca i32, align 4
  store ptr %0, ptr %4, align 8
  store ptr %1, ptr %5, align 8
  %12 = load ptr, ptr %4, align 8
  %13 = icmp eq ptr %12, null
  br i1 %13, label %14, label %16

14:                                               ; preds = %2
  %15 = call zeroext i1 (ptr, ...) @SDL_SetError_REAL(ptr noundef @.str.3)
  store ptr null, ptr %3, align 8
  br label %160

16:                                               ; preds = %2
  %17 = load ptr, ptr %5, align 8
  %18 = icmp eq ptr %17, null
  br i1 %18, label %19, label %21

19:                                               ; preds = %16
  %20 = call zeroext i1 (ptr, ...) @SDL_SetError_REAL(ptr noundef @.str.4, ptr noundef @.str.11)
  store ptr null, ptr %3, align 8
  br label %160

21:                                               ; preds = %16
  %22 = load ptr, ptr %4, align 8
  %23 = getelementptr inbounds nuw %struct.SDL_GPUDevice, ptr %22, i32 0, i32 86
  %24 = load i8, ptr %23, align 4, !range !5, !noundef !6
  %25 = trunc i8 %24 to i1
  br i1 %25, label %26, label %151

26:                                               ; preds = %21
  %27 = load ptr, ptr %5, align 8
  %28 = getelementptr inbounds nuw %struct.SDL_GPUComputePipelineCreateInfo, ptr %27, i32 0, i32 3
  %29 = load i32, ptr %28, align 8
  %30 = icmp eq i32 %29, 0
  br i1 %30, label %31, label %48

31:                                               ; preds = %26
  br label %32

32:                                               ; preds = %31
  br label %33

33:                                               ; preds = %32, %44
  call void @llvm.lifetime.start.p0(i64 4, ptr %6) #6
  %34 = call i32 @SDL_ReportAssertion_REAL(ptr noundef @SDL_CreateGPUComputePipeline_REAL.sdl_assert_data, ptr noundef @__func__.SDL_CreateGPUComputePipeline_REAL, ptr noundef @.str.8, i32 noundef 887)
  store i32 %34, ptr %6, align 4
  %35 = load i32, ptr %6, align 4
  %36 = icmp eq i32 %35, 0
  br i1 %36, label %37, label %38

37:                                               ; preds = %33
  store i32 4, ptr %7, align 4
  br label %44

38:                                               ; preds = %33
  %39 = load i32, ptr %6, align 4
  %40 = icmp eq i32 %39, 1
  br i1 %40, label %41, label %42

41:                                               ; preds = %38
  call void @llvm.debugtrap()
  br label %42

42:                                               ; preds = %41, %38
  br label %43

43:                                               ; preds = %42
  store i32 5, ptr %7, align 4
  br label %44

44:                                               ; preds = %43, %37
  call void @llvm.lifetime.end.p0(i64 4, ptr %6) #6
  %45 = load i32, ptr %7, align 4
  switch i32 %45, label %162 [
    i32 4, label %33
    i32 5, label %46
  ]

46:                                               ; preds = %44
  br label %47

47:                                               ; preds = %46
  store ptr null, ptr %3, align 8
  br label %160

48:                                               ; preds = %26
  %49 = load ptr, ptr %5, align 8
  %50 = getelementptr inbounds nuw %struct.SDL_GPUComputePipelineCreateInfo, ptr %49, i32 0, i32 3
  %51 = load i32, ptr %50, align 8
  %52 = load ptr, ptr %4, align 8
  %53 = getelementptr inbounds nuw %struct.SDL_GPUDevice, ptr %52, i32 0, i32 85
  %54 = load i32, ptr %53, align 8
  %55 = and i32 %51, %54
  %56 = icmp ne i32 %55, 0
  br i1 %56, label %74, label %57

57:                                               ; preds = %48
  br label %58

58:                                               ; preds = %57
  br label %59

59:                                               ; preds = %58, %70
  call void @llvm.lifetime.start.p0(i64 4, ptr %8) #6
  %60 = call i32 @SDL_ReportAssertion_REAL(ptr noundef @SDL_CreateGPUComputePipeline_REAL.sdl_assert_data.15, ptr noundef @__func__.SDL_CreateGPUComputePipeline_REAL, ptr noundef @.str.8, i32 noundef 891)
  store i32 %60, ptr %8, align 4
  %61 = load i32, ptr %8, align 4
  %62 = icmp eq i32 %61, 0
  br i1 %62, label %63, label %64

63:                                               ; preds = %59
  store i32 8, ptr %7, align 4
  br label %70

64:                                               ; preds = %59
  %65 = load i32, ptr %8, align 4
  %66 = icmp eq i32 %65, 1
  br i1 %66, label %67, label %68

67:                                               ; preds = %64
  call void @llvm.debugtrap()
  br label %68

68:                                               ; preds = %67, %64
  br label %69

69:                                               ; preds = %68
  store i32 9, ptr %7, align 4
  br label %70

70:                                               ; preds = %69, %63
  call void @llvm.lifetime.end.p0(i64 4, ptr %8) #6
  %71 = load i32, ptr %7, align 4
  switch i32 %71, label %162 [
    i32 8, label %59
    i32 9, label %72
  ]

72:                                               ; preds = %70
  br label %73

73:                                               ; preds = %72
  store ptr null, ptr %3, align 8
  br label %160

74:                                               ; preds = %48
  %75 = load ptr, ptr %5, align 8
  %76 = getelementptr inbounds nuw %struct.SDL_GPUComputePipelineCreateInfo, ptr %75, i32 0, i32 7
  %77 = load i32, ptr %76, align 8
  %78 = icmp ugt i32 %77, 8
  br i1 %78, label %79, label %96

79:                                               ; preds = %74
  br label %80

80:                                               ; preds = %79
  br label %81

81:                                               ; preds = %80, %92
  call void @llvm.lifetime.start.p0(i64 4, ptr %9) #6
  %82 = call i32 @SDL_ReportAssertion_REAL(ptr noundef @SDL_CreateGPUComputePipeline_REAL.sdl_assert_data.18, ptr noundef @__func__.SDL_CreateGPUComputePipeline_REAL, ptr noundef @.str.8, i32 noundef 895)
  store i32 %82, ptr %9, align 4
  %83 = load i32, ptr %9, align 4
  %84 = icmp eq i32 %83, 0
  br i1 %84, label %85, label %86

85:                                               ; preds = %81
  store i32 12, ptr %7, align 4
  br label %92

86:                                               ; preds = %81
  %87 = load i32, ptr %9, align 4
  %88 = icmp eq i32 %87, 1
  br i1 %88, label %89, label %90

89:                                               ; preds = %86
  call void @llvm.debugtrap()
  br label %90

90:                                               ; preds = %89, %86
  br label %91

91:                                               ; preds = %90
  store i32 13, ptr %7, align 4
  br label %92

92:                                               ; preds = %91, %85
  call void @llvm.lifetime.end.p0(i64 4, ptr %9) #6
  %93 = load i32, ptr %7, align 4
  switch i32 %93, label %162 [
    i32 12, label %81
    i32 13, label %94
  ]

94:                                               ; preds = %92
  br label %95

95:                                               ; preds = %94
  store ptr null, ptr %3, align 8
  br label %160

96:                                               ; preds = %74
  %97 = load ptr, ptr %5, align 8
  %98 = getelementptr inbounds nuw %struct.SDL_GPUComputePipelineCreateInfo, ptr %97, i32 0, i32 8
  %99 = load i32, ptr %98, align 4
  %100 = icmp ugt i32 %99, 8
  br i1 %100, label %101, label %118

101:                                              ; preds = %96
  br label %102

102:                                              ; preds = %101
  br label %103

103:                                              ; preds = %102, %114
  call void @llvm.lifetime.start.p0(i64 4, ptr %10) #6
  %104 = call i32 @SDL_ReportAssertion_REAL(ptr noundef @SDL_CreateGPUComputePipeline_REAL.sdl_assert_data.21, ptr noundef @__func__.SDL_CreateGPUComputePipeline_REAL, ptr noundef @.str.8, i32 noundef 899)
  store i32 %104, ptr %10, align 4
  %105 = load i32, ptr %10, align 4
  %106 = icmp eq i32 %105, 0
  br i1 %106, label %107, label %108

107:                                              ; preds = %103
  store i32 16, ptr %7, align 4
  br label %114

108:                                              ; preds = %103
  %109 = load i32, ptr %10, align 4
  %110 = icmp eq i32 %109, 1
  br i1 %110, label %111, label %112

111:                                              ; preds = %108
  call void @llvm.debugtrap()
  br label %112

112:                                              ; preds = %111, %108
  br label %113

113:                                              ; preds = %112
  store i32 17, ptr %7, align 4
  br label %114

114:                                              ; preds = %113, %107
  call void @llvm.lifetime.end.p0(i64 4, ptr %10) #6
  %115 = load i32, ptr %7, align 4
  switch i32 %115, label %162 [
    i32 16, label %103
    i32 17, label %116
  ]

116:                                              ; preds = %114
  br label %117

117:                                              ; preds = %116
  store ptr null, ptr %3, align 8
  br label %160

118:                                              ; preds = %96
  %119 = load ptr, ptr %5, align 8
  %120 = getelementptr inbounds nuw %struct.SDL_GPUComputePipelineCreateInfo, ptr %119, i32 0, i32 10
  %121 = load i32, ptr %120, align 4
  %122 = icmp eq i32 %121, 0
  br i1 %122, label %133, label %123

123:                                              ; preds = %118
  %124 = load ptr, ptr %5, align 8
  %125 = getelementptr inbounds nuw %struct.SDL_GPUComputePipelineCreateInfo, ptr %124, i32 0, i32 11
  %126 = load i32, ptr %125, align 8
  %127 = icmp eq i32 %126, 0
  br i1 %127, label %133, label %128

128:                                              ; preds = %123
  %129 = load ptr, ptr %5, align 8
  %130 = getelementptr inbounds nuw %struct.SDL_GPUComputePipelineCreateInfo, ptr %129, i32 0, i32 12
  %131 = load i32, ptr %130, align 4
  %132 = icmp eq i32 %131, 0
  br i1 %132, label %133, label %150

133:                                              ; preds = %128, %123, %118
  br label %134

134:                                              ; preds = %133
  br label %135

135:                                              ; preds = %134, %146
  call void @llvm.lifetime.start.p0(i64 4, ptr %11) #6
  %136 = call i32 @SDL_ReportAssertion_REAL(ptr noundef @SDL_CreateGPUComputePipeline_REAL.sdl_assert_data.24, ptr noundef @__func__.SDL_CreateGPUComputePipeline_REAL, ptr noundef @.str.8, i32 noundef 905)
  store i32 %136, ptr %11, align 4
  %137 = load i32, ptr %11, align 4
  %138 = icmp eq i32 %137, 0
  br i1 %138, label %139, label %140

139:                                              ; preds = %135
  store i32 20, ptr %7, align 4
  br label %146

140:                                              ; preds = %135
  %141 = load i32, ptr %11, align 4
  %142 = icmp eq i32 %141, 1
  br i1 %142, label %143, label %144

143:                                              ; preds = %140
  call void @llvm.debugtrap()
  br label %144

144:                                              ; preds = %143, %140
  br label %145

145:                                              ; preds = %144
  store i32 21, ptr %7, align 4
  br label %146

146:                                              ; preds = %145, %139
  call void @llvm.lifetime.end.p0(i64 4, ptr %11) #6
  %147 = load i32, ptr %7, align 4
  switch i32 %147, label %162 [
    i32 20, label %135
    i32 21, label %148
  ]

148:                                              ; preds = %146
  br label %149

149:                                              ; preds = %148
  store ptr null, ptr %3, align 8
  br label %160

150:                                              ; preds = %128
  br label %151

151:                                              ; preds = %150, %21
  %152 = load ptr, ptr %4, align 8
  %153 = getelementptr inbounds nuw %struct.SDL_GPUDevice, ptr %152, i32 0, i32 2
  %154 = load ptr, ptr %153, align 8
  %155 = load ptr, ptr %4, align 8
  %156 = getelementptr inbounds nuw %struct.SDL_GPUDevice, ptr %155, i32 0, i32 83
  %157 = load ptr, ptr %156, align 8
  %158 = load ptr, ptr %5, align 8
  %159 = call ptr %154(ptr noundef %157, ptr noundef %158)
  store ptr %159, ptr %3, align 8
  br label %160

160:                                              ; preds = %151, %149, %117, %95, %73, %47, %19, %14
  %161 = load ptr, ptr %3, align 8
  ret ptr %161

162:                                              ; preds = %146, %114, %92, %70, %44
  unreachable
}