; Function Attrs: nounwind uwtable
define hidden ptr @SDL_CreateGPUComputePipeline_REAL(ptr noundef readonly captures(address_is_null) %0, ptr noundef %1) local_unnamed_addr #0 {
  %3 = icmp eq ptr %0, null
  br i1 %3, label %4, label %6

4:                                                ; preds = %2
  %5 = tail call zeroext i1 (ptr, ...) @SDL_SetError_REAL(ptr noundef nonnull @.str.3) #7
  br label %.thread

6:                                                ; preds = %2
  %7 = icmp eq ptr %1, null
  br i1 %7, label %8, label %10

8:                                                ; preds = %6
  %9 = tail call zeroext i1 (ptr, ...) @SDL_SetError_REAL(ptr noundef nonnull @.str.4, ptr noundef nonnull @.str.11) #7
  br label %.thread

10:                                               ; preds = %6
  %11 = getelementptr inbounds nuw i8, ptr %0, i64 684
  %12 = load i8, ptr %11, align 4, !range !5, !noundef !6
  %13 = trunc nuw i8 %12 to i1
  br i1 %13, label %14, label %53

14:                                               ; preds = %10
  %15 = getelementptr inbounds nuw i8, ptr %1, i64 24
  %16 = load i32, ptr %15, align 8
  %17 = icmp eq i32 %16, 0
  br i1 %17, label %.preheader, label %20

.preheader:                                       ; preds = %14, %.preheader
  %18 = tail call i32 @SDL_ReportAssertion_REAL(ptr noundef nonnull @SDL_CreateGPUComputePipeline_REAL.sdl_assert_data, ptr noundef nonnull @__func__.SDL_CreateGPUComputePipeline_REAL, ptr noundef nonnull @.str.8, i32 noundef 887) #7
  switch i32 %18, label %.thread [
    i32 0, label %.preheader
    i32 1, label %19
  ]

19:                                               ; preds = %.preheader
  tail call void @llvm.debugtrap()
  br label %.thread

20:                                               ; preds = %14
  %21 = getelementptr inbounds nuw i8, ptr %0, i64 680
  %22 = load i32, ptr %21, align 8
  %23 = and i32 %22, %16
  %.not = icmp eq i32 %23, 0
  br i1 %.not, label %.preheader65, label %26

.preheader65:                                     ; preds = %20, %.preheader65
  %24 = tail call i32 @SDL_ReportAssertion_REAL(ptr noundef nonnull @SDL_CreateGPUComputePipeline_REAL.sdl_assert_data.15, ptr noundef nonnull @__func__.SDL_CreateGPUComputePipeline_REAL, ptr noundef nonnull @.str.8, i32 noundef 891) #7
  switch i32 %24, label %.thread [
    i32 0, label %.preheader65
    i32 1, label %25
  ]

25:                                               ; preds = %.preheader65
  tail call void @llvm.debugtrap()
  br label %.thread

26:                                               ; preds = %20
  %27 = getelementptr inbounds nuw i8, ptr %1, i64 40
  %28 = load i32, ptr %27, align 8
  %29 = icmp ugt i32 %28, 8
  br i1 %29, label %.preheader67, label %32

.preheader67:                                     ; preds = %26, %.preheader67
  %30 = tail call i32 @SDL_ReportAssertion_REAL(ptr noundef nonnull @SDL_CreateGPUComputePipeline_REAL.sdl_assert_data.18, ptr noundef nonnull @__func__.SDL_CreateGPUComputePipeline_REAL, ptr noundef nonnull @.str.8, i32 noundef 895) #7
  switch i32 %30, label %.thread [
    i32 0, label %.preheader67
    i32 1, label %31
  ]

31:                                               ; preds = %.preheader67
  tail call void @llvm.debugtrap()
  br label %.thread

32:                                               ; preds = %26
  %33 = getelementptr inbounds nuw i8, ptr %1, i64 44
  %34 = load i32, ptr %33, align 4
  %35 = icmp ugt i32 %34, 8
  br i1 %35, label %.preheader69, label %38

.preheader69:                                     ; preds = %32, %.preheader69
  %36 = tail call i32 @SDL_ReportAssertion_REAL(ptr noundef nonnull @SDL_CreateGPUComputePipeline_REAL.sdl_assert_data.21, ptr noundef nonnull @__func__.SDL_CreateGPUComputePipeline_REAL, ptr noundef nonnull @.str.8, i32 noundef 899) #7
  switch i32 %36, label %.thread [
    i32 0, label %.preheader69
    i32 1, label %37
  ]

37:                                               ; preds = %.preheader69
  tail call void @llvm.debugtrap()
  br label %.thread

38:                                               ; preds = %32
  %39 = getelementptr inbounds nuw i8, ptr %1, i64 52
  %40 = load i32, ptr %39, align 4
  %41 = icmp eq i32 %40, 0
  br i1 %41, label %.preheader87, label %42

42:                                               ; preds = %38
  %43 = getelementptr inbounds nuw i8, ptr %1, i64 56
  %44 = load i32, ptr %43, align 8
  %45 = icmp eq i32 %44, 0
  br i1 %45, label %.preheader87, label %46

46:                                               ; preds = %42
  %47 = getelementptr inbounds nuw i8, ptr %1, i64 60
  %48 = load i32, ptr %47, align 4
  %49 = icmp eq i32 %48, 0
  br i1 %49, label %.preheader87, label %53

.preheader87:                                     ; preds = %38, %42, %46
  br label %50

50:                                               ; preds = %.preheader87, %50
  %51 = tail call i32 @SDL_ReportAssertion_REAL(ptr noundef nonnull @SDL_CreateGPUComputePipeline_REAL.sdl_assert_data.24, ptr noundef nonnull @__func__.SDL_CreateGPUComputePipeline_REAL, ptr noundef nonnull @.str.8, i32 noundef 905) #7
  switch i32 %51, label %.thread [
    i32 0, label %50
    i32 1, label %52
  ]

52:                                               ; preds = %50
  tail call void @llvm.debugtrap()
  br label %.thread

53:                                               ; preds = %46, %10
  %54 = getelementptr inbounds nuw i8, ptr %0, i64 16
  %55 = load ptr, ptr %54, align 8
  %56 = getelementptr inbounds nuw i8, ptr %0, i64 664
  %57 = load ptr, ptr %56, align 8
  %58 = tail call ptr %55(ptr noundef %57, ptr noundef nonnull %1) #7
  br label %.thread

.thread:                                          ; preds = %50, %.preheader69, %.preheader67, %.preheader65, %.preheader, %52, %37, %31, %25, %19, %53, %8, %4
  %.0 = phi ptr [ null, %4 ], [ null, %8 ], [ %58, %53 ], [ null, %19 ], [ null, %25 ], [ null, %31 ], [ null, %37 ], [ null, %52 ], [ null, %.preheader ], [ null, %.preheader65 ], [ null, %.preheader67 ], [ null, %.preheader69 ], [ null, %50 ]
  ret ptr %.0
}